Certificate:
    Data:
        Version: 3 (0x2)
        Serial Number:
            cb:fc:9d:c0:ca:bd:0f:92:e4:48:21:a2:67:12:28:e5
        Signature Algorithm: sha256WithRSAEncryption
        Issuer: CN=vpn.dmkk.cloudns.nz
        Validity
            Not Before: Apr  3 05:32:16 2022 GMT
            Not After : Jul  6 05:32:16 2024 GMT
        Subject: CN=vpn.dmkk.cloudns.nz
        Subject Public Key Info:
            Public Key Algorithm: rsaEncryption
                RSA Public-Key: (2048 bit)
                Modulus:
                    00:bb:99:b6:38:bf:d1:cf:dc:e3:dc:90:4a:41:26:
                    e7:8a:69:94:a4:16:90:02:f9:87:1c:06:9c:d7:ce:
                    08:dd:f0:2d:77:01:a0:51:4d:0a:dc:99:fe:92:56:
                    9e:8b:23:01:fb:01:50:55:56:c4:20:a9:ed:bc:5c:
                    5e:90:c0:cb:45:0b:5b:95:ad:8b:71:5c:c5:57:98:
                    81:d9:e1:3c:4b:7b:4e:4a:58:78:00:c4:b6:7e:ee:
                    2f:6e:01:92:fe:2a:5c:2b:e7:66:80:34:38:23:0a:
                    29:a4:47:89:ce:26:1d:0c:9a:3a:23:84:25:11:14:
                    f3:64:45:01:39:ab:1c:96:48:5e:13:2d:5e:f5:bc:
                    01:87:56:ad:66:a0:46:a0:ee:08:9c:aa:6e:b8:a7:
                    75:33:ba:77:3a:04:09:5c:23:45:9c:03:d4:1c:91:
                    68:e7:e6:3a:a8:79:f9:50:e8:06:32:55:63:4f:0b:
                    e8:d0:21:e3:88:44:d1:14:91:7e:87:c6:72:ea:e1:
                    5d:e9:27:49:f6:ea:be:01:0e:0a:94:46:32:d0:84:
                    ed:d6:a6:e1:12:2f:38:c8:c1:2a:51:cf:51:26:54:
                    3d:e9:98:bb:91:b4:05:9e:8c:28:79:fc:7f:62:26:
                    19:52:21:de:7c:7c:9c:c5:3e:0c:8b:9c:fc:af:42:
                    99:a3
                Exponent: 65537 (0x10001)
        X509v3 extensions:
            X509v3 Basic Constraints: 
                CA:FALSE
            X509v3 Subject Key Identifier: 
                F5:78:41:F7:55:3B:B1:78:4E:2C:9C:2A:17:F8:27:C2:8E:3A:08:46
            X509v3 Authority Key Identifier: 
                keyid:2A:91:77:51:14:27:9F:DA:34:68:A9:93:8E:96:90:21:57:80:71:80
                DirName:/CN=vpn.dmkk.cloudns.nz
                serial:6A:58:F4:FF:2A:D4:03:E6:8B:A3:53:9A:51:23:B6:30:AD:4F:6D:35

            X509v3 Extended Key Usage: 
                TLS Web Server Authentication
            X509v3 Key Usage: 
                Digital Signature, Key Encipherment
            X509v3 Subject Alternative Name: 
                DNS:vpn.dmkk.cloudns.nz
    Signature Algorithm: sha256WithRSAEncryption
         80:cc:b9:c3:49:31:53:fc:43:01:53:b5:b1:11:50:81:12:30:
         fd:5f:20:00:ee:6f:b6:bc:1f:b0:eb:45:83:72:47:5d:7f:6a:
         6e:02:87:81:19:40:c9:57:c1:93:de:42:27:93:cf:31:fa:25:
         4e:63:3c:4d:f1:e0:6f:82:1c:44:1e:08:9c:fc:20:82:5c:d8:
         89:39:c5:4e:d4:9d:c6:a3:18:ad:5b:c2:0b:9d:85:19:f9:97:
         d4:2f:8a:17:ef:2a:93:60:85:1e:86:ff:b7:dd:e7:f3:10:ab:
         ab:54:df:78:02:01:db:d3:3b:9a:45:31:70:2c:bf:9e:8e:19:
         60:4e:e2:af:1c:eb:1f:55:40:a1:c8:57:c2:99:02:db:82:23:
         7d:80:d1:00:00:45:f8:f1:17:3f:d3:d9:84:23:0a:3e:9e:4b:
         c0:db:c8:9c:cf:11:98:f6:3c:46:32:1c:c0:09:38:13:9f:a1:
         8f:b9:c0:34:18:d0:ce:09:ef:94:33:cc:3e:66:33:3a:77:28:
         1c:26:bb:74:a3:99:70:68:64:79:96:41:7d:a3:4a:61:50:b1:
         be:69:40:a0:b4:39:1c:45:ca:41:11:92:c7:69:70:f8:07:3d:
         4b:ee:b4:07:94:19:21:90:69:71:b8:ae:b4:31:14:b9:1a:7b:
         44:48:f7:6d
-----BEGIN CERTIFICATE-----
MIIDkjCCAnqgAwIBAgIRAMv8ncDKvQ+S5EghomcSKOUwDQYJKoZIhvcNAQELBQAw
HjEcMBoGA1UEAwwTdnBuLmRta2suY2xvdWRucy5uejAeFw0yMjA0MDMwNTMyMTZa
Fw0yNDA3MDYwNTMyMTZaMB4xHDAaBgNVBAMME3Zwbi5kbWtrLmNsb3VkbnMubnow
ggEiMA0GCSqGSIb3DQEBAQUAA4IBDwAwggEKAoIBAQC7mbY4v9HP3OPckEpBJueK
aZSkFpAC+YccBpzXzgjd8C13AaBRTQrcmf6SVp6LIwH7AVBVVsQgqe28XF6QwMtF
C1uVrYtxXMVXmIHZ4TxLe05KWHgAxLZ+7i9uAZL+Klwr52aANDgjCimkR4nOJh0M
mjojhCURFPNkRQE5qxyWSF4TLV71vAGHVq1moEag7gicqm64p3Uzunc6BAlcI0Wc
A9QckWjn5jqoeflQ6AYyVWNPC+jQIeOIRNEUkX6HxnLq4V3pJ0n26r4BDgqURjLQ
hO3WpuESLzjIwSpRz1EmVD3pmLuRtAWejCh5/H9iJhlSId58fJzFPgyLnPyvQpmj
AgMBAAGjgcowgccwCQYDVR0TBAIwADAdBgNVHQ4EFgQU9XhB91U7sXhOLJwqF/gn
wo46CEYwWQYDVR0jBFIwUIAUKpF3URQnn9o0aKmTjpaQIVeAcYChIqQgMB4xHDAa
BgNVBAMME3Zwbi5kbWtrLmNsb3VkbnMubnqCFGpY9P8q1APmi6NTmlEjtjCtT201
MBMGA1UdJQQMMAoGCCsGAQUFBwMBMAsGA1UdDwQEAwIFoDAeBgNVHREEFzAVghN2
cG4uZG1ray5jbG91ZG5zLm56MA0GCSqGSIb3DQEBCwUAA4IBAQCAzLnDSTFT/EMB
U7WxEVCBEjD9XyAA7m+2vB+w60WDckddf2puAoeBGUDJV8GT3kInk88x+iVOYzxN
8eBvghxEHgic/CCCXNiJOcVO1J3GoxitW8ILnYUZ+ZfUL4oX7yqTYIUehv+33efz
EKurVN94AgHb0zuaRTFwLL+ejhlgTuKvHOsfVUChyFfCmQLbgiN9gNEAAEX48Rc/
09mEIwo+nkvA28iczxGY9jxGMhzACTgTn6GPucA0GNDOCe+UM8w+ZjM6dygcJrt0
o5lwaGR5lkF9o0phULG+aUCgtDkcRcpBEZLHaXD4Bz1L7rQHlBkhkGlxuK60MRS5
GntESPdt
-----END CERTIFICATE-----
