Certificate:
    Data:
        Version: 3 (0x2)
        Serial Number:
            ce:f5:e7:87:09:5b:48:5e:97:7c:bc:7b:da:ba:d5:6e
        Signature Algorithm: sha256WithRSAEncryption
        Issuer: CN=vpn.dmkk.cloudns.nz
        Validity
            Not Before: Apr  3 05:32:50 2022 GMT
            Not After : Jul  6 05:32:50 2024 GMT
        Subject: CN=kavi
        Subject Public Key Info:
            Public Key Algorithm: rsaEncryption
                RSA Public-Key: (2048 bit)
                Modulus:
                    00:ca:21:b2:92:96:8b:1e:f5:82:47:2e:d9:8a:7c:
                    26:0c:b6:c8:22:44:39:26:d2:8c:a7:06:02:e8:6d:
                    5f:fb:10:35:01:8a:6d:b0:d2:c7:e2:09:72:b2:14:
                    e6:e0:48:96:9a:b7:ad:50:0b:8c:b2:1b:bb:c7:c6:
                    f7:9e:38:ab:cb:c0:ef:46:18:26:9d:2a:4a:ad:01:
                    a5:d1:29:47:84:59:bd:f8:59:f4:98:c5:7d:42:d7:
                    4e:3e:66:03:b8:80:34:5b:44:5a:c2:28:f9:46:f1:
                    d3:4c:ef:32:eb:f9:a6:de:75:30:6a:aa:c5:59:ff:
                    6e:e9:05:1d:11:fb:5d:24:03:8d:62:6e:7e:33:2c:
                    a5:02:aa:af:91:de:d1:47:a0:aa:74:88:86:38:58:
                    1d:d4:76:f8:32:b5:88:bf:89:de:f8:0c:1e:a9:d2:
                    5e:43:f4:3e:ef:69:64:28:67:70:a7:d6:8b:41:86:
                    9f:c9:9a:6b:ae:de:35:c0:77:be:38:0d:af:07:ff:
                    05:1e:3d:de:58:eb:62:e2:b5:91:6b:99:53:00:11:
                    6b:06:bc:e1:88:5b:89:6d:58:8a:62:61:db:23:d3:
                    98:ba:6a:7c:a1:6d:f6:3f:df:9e:46:32:8e:14:34:
                    85:fa:35:10:7b:ad:45:52:22:5d:e3:82:58:70:d9:
                    0e:77
                Exponent: 65537 (0x10001)
        X509v3 extensions:
            X509v3 Basic Constraints: 
                CA:FALSE
            X509v3 Subject Key Identifier: 
                7D:B5:A9:78:C9:9B:8C:CD:29:AC:6C:05:D4:A9:87:86:EE:DB:3A:48
            X509v3 Authority Key Identifier: 
                keyid:2A:91:77:51:14:27:9F:DA:34:68:A9:93:8E:96:90:21:57:80:71:80
                DirName:/CN=vpn.dmkk.cloudns.nz
                serial:6A:58:F4:FF:2A:D4:03:E6:8B:A3:53:9A:51:23:B6:30:AD:4F:6D:35

            X509v3 Extended Key Usage: 
                TLS Web Client Authentication
            X509v3 Key Usage: 
                Digital Signature
    Signature Algorithm: sha256WithRSAEncryption
         c5:7e:85:98:fd:35:72:e9:e8:95:f5:54:28:01:3a:09:58:6e:
         30:e6:dc:74:2a:f4:fc:2b:73:59:80:26:1a:60:5f:73:93:75:
         21:d4:b1:50:39:24:5a:52:8c:23:89:4d:f1:6f:9a:27:c4:1f:
         fc:de:83:93:7e:9c:26:b5:8a:47:b2:99:5f:be:35:23:a5:c0:
         e8:26:25:09:7e:77:1c:3e:8a:ab:8d:c8:c0:c9:b0:52:1b:01:
         bf:d5:e7:b4:b8:29:55:30:83:e4:31:eb:c6:ca:74:92:ee:15:
         1d:9d:9d:ad:a9:77:20:5c:de:4d:cb:df:c4:3f:70:89:39:53:
         b2:2f:20:71:15:11:1b:98:3b:9f:74:98:fb:3a:e6:32:13:5f:
         2b:3b:e4:d5:70:70:10:fb:18:b8:e8:3c:77:57:83:23:46:f2:
         9f:9c:d8:10:24:e0:49:7a:d4:65:c9:72:0a:ce:03:a5:af:6d:
         92:ba:87:a1:06:9d:58:f4:29:8a:a4:ce:9f:48:e0:45:40:be:
         3d:cf:92:cb:e4:ee:ac:97:cb:c7:17:4d:45:d7:84:cf:d9:f7:
         46:ec:2a:d0:fe:96:0a:03:0d:64:37:4e:6a:73:9e:df:49:b7:
         51:83:ea:e6:ca:3a:79:f0:6b:60:d0:1b:f3:bf:b3:06:74:41:
         45:d0:45:0a
-----BEGIN CERTIFICATE-----
MIIDYzCCAkugAwIBAgIRAM7154cJW0hel3y8e9q61W4wDQYJKoZIhvcNAQELBQAw
HjEcMBoGA1UEAwwTdnBuLmRta2suY2xvdWRucy5uejAeFw0yMjA0MDMwNTMyNTBa
Fw0yNDA3MDYwNTMyNTBaMA8xDTALBgNVBAMMBGthdmkwggEiMA0GCSqGSIb3DQEB
AQUAA4IBDwAwggEKAoIBAQDKIbKSlose9YJHLtmKfCYMtsgiRDkm0oynBgLobV/7
EDUBim2w0sfiCXKyFObgSJaat61QC4yyG7vHxveeOKvLwO9GGCadKkqtAaXRKUeE
Wb34WfSYxX1C104+ZgO4gDRbRFrCKPlG8dNM7zLr+abedTBqqsVZ/27pBR0R+10k
A41ibn4zLKUCqq+R3tFHoKp0iIY4WB3UdvgytYi/id74DB6p0l5D9D7vaWQoZ3Cn
1otBhp/Jmmuu3jXAd744Da8H/wUePd5Y62LitZFrmVMAEWsGvOGIW4ltWIpiYdsj
05i6anyhbfY/355GMo4UNIX6NRB7rUVSIl3jglhw2Q53AgMBAAGjgaowgacwCQYD
VR0TBAIwADAdBgNVHQ4EFgQUfbWpeMmbjM0prGwF1KmHhu7bOkgwWQYDVR0jBFIw
UIAUKpF3URQnn9o0aKmTjpaQIVeAcYChIqQgMB4xHDAaBgNVBAMME3Zwbi5kbWtr
LmNsb3VkbnMubnqCFGpY9P8q1APmi6NTmlEjtjCtT201MBMGA1UdJQQMMAoGCCsG
AQUFBwMCMAsGA1UdDwQEAwIHgDANBgkqhkiG9w0BAQsFAAOCAQEAxX6FmP01cuno
lfVUKAE6CVhuMObcdCr0/CtzWYAmGmBfc5N1IdSxUDkkWlKMI4lN8W+aJ8Qf/N6D
k36cJrWKR7KZX741I6XA6CYlCX53HD6Kq43IwMmwUhsBv9XntLgpVTCD5DHrxsp0
ku4VHZ2dral3IFzeTcvfxD9wiTlTsi8gcRURG5g7n3SY+zrmMhNfKzvk1XBwEPsY
uOg8d1eDI0byn5zYECTgSXrUZclyCs4Dpa9tkrqHoQadWPQpiqTOn0jgRUC+Pc+S
y+TurJfLxxdNRdeEz9n3Ruwq0P6WCgMNZDdOanOe30m3UYPq5so6efBrYNAb87+z
BnRBRdBFCg==
-----END CERTIFICATE-----
