Certificate:
    Data:
        Version: 3 (0x2)
        Serial Number:
            58:a4:cd:d6:c2:2b:59:24:56:dd:e0:e2:7d:1c:28:de
        Signature Algorithm: sha256WithRSAEncryption
        Issuer: CN=vpn2.dmkk.cloudns.nz
        Validity
            Not Before: Apr  3 07:19:11 2022 GMT
            Not After : Jul  6 07:19:11 2024 GMT
        Subject: CN=dmkk
        Subject Public Key Info:
            Public Key Algorithm: rsaEncryption
                RSA Public-Key: (2048 bit)
                Modulus:
                    00:9d:1b:21:b2:eb:ac:dd:43:1b:73:1b:3a:35:85:
                    b3:54:dd:82:4d:d2:2e:6b:65:48:c7:82:54:09:21:
                    31:ce:31:97:87:02:9f:60:13:a8:53:a5:4d:15:67:
                    cb:84:c7:13:fd:a1:e0:2f:2f:d6:5e:75:ec:33:ad:
                    a4:53:50:3e:3a:a9:9f:8f:ec:a1:6c:14:80:79:64:
                    cd:fa:02:a5:bf:b3:d1:d3:1d:81:af:b3:e1:f3:f7:
                    11:e3:92:de:18:f7:06:00:ac:ed:be:10:9e:a4:85:
                    62:72:bf:5a:75:41:94:31:61:0f:99:96:b4:8e:d6:
                    dc:f5:6f:19:de:70:06:7e:ec:1e:78:d7:8a:1f:4a:
                    93:35:e1:28:c7:d9:9f:5f:34:41:7c:4a:08:52:a0:
                    08:dc:f3:da:59:ad:ac:9f:60:e4:7f:8d:f4:c1:53:
                    a2:a2:a5:15:31:9a:d6:9f:3d:eb:51:19:03:b1:c8:
                    9e:e9:e7:69:3c:96:fa:9f:ca:d8:cc:d7:80:dd:16:
                    36:a6:b6:9e:e7:87:15:ac:f4:c7:a8:fc:40:7f:e1:
                    32:d1:01:b1:30:85:60:25:1f:9a:36:2b:88:17:c5:
                    24:1e:a8:bb:6f:7a:56:75:15:9b:5c:7d:0d:94:10:
                    d1:ce:d2:71:f7:b3:c9:49:f3:86:40:ad:dc:6d:59:
                    5d:65
                Exponent: 65537 (0x10001)
        X509v3 extensions:
            X509v3 Basic Constraints: 
                CA:FALSE
            X509v3 Subject Key Identifier: 
                74:BD:EC:16:95:8A:AC:7F:55:56:93:F5:31:F6:DA:08:27:6A:FA:97
            X509v3 Authority Key Identifier: 
                keyid:1B:CE:35:94:0F:DA:2E:D3:EB:CA:09:BA:DF:63:70:18:CD:E3:80:01
                DirName:/CN=vpn2.dmkk.cloudns.nz
                serial:54:7F:44:0B:6C:50:A3:1D:E0:54:ED:D2:FC:2D:37:34:CC:A1:3C:0F

            X509v3 Extended Key Usage: 
                TLS Web Client Authentication
            X509v3 Key Usage: 
                Digital Signature
    Signature Algorithm: sha256WithRSAEncryption
         80:21:72:d6:6e:98:52:28:31:74:49:6e:4e:31:08:21:7d:69:
         5f:0c:1b:3f:b2:87:2a:8c:e9:eb:d6:6a:79:8f:f0:d3:57:12:
         a7:77:06:79:b7:1b:61:c6:69:ba:d0:16:fd:4f:2f:bf:42:da:
         74:ea:69:33:fc:9e:60:10:ce:e3:5f:d6:ed:7f:01:5c:cc:03:
         64:ef:a2:9e:07:f1:23:59:3a:4a:95:48:3d:33:43:66:32:6a:
         84:af:67:36:53:8e:21:65:49:09:fa:88:f8:96:60:da:9a:7e:
         e9:e7:63:ed:0c:3f:9e:a7:b8:37:e0:92:ab:55:7b:bc:ad:2c:
         1c:f8:06:02:1b:de:07:c2:69:f7:6d:e5:8f:89:94:a3:10:f6:
         fe:49:40:3d:f2:8a:35:09:61:cc:e3:34:d1:52:7d:05:c7:bc:
         a9:23:1b:82:6e:ac:d2:aa:7e:24:f5:6b:10:fa:e4:18:db:fa:
         48:a7:cb:9d:fd:d4:8f:c6:90:6d:bb:08:75:d8:ba:a2:2f:ab:
         9a:fb:ce:ba:33:26:79:8c:a5:3b:16:dd:cf:2e:f5:48:98:b6:
         0f:38:51:29:13:b0:50:6c:80:4e:e5:a8:37:94:b4:34:93:b8:
         5e:9d:75:6e:e3:19:47:dd:a2:ed:6e:86:8c:63:19:44:5e:88:
         d6:d8:9d:a9
-----BEGIN CERTIFICATE-----
MIIDZDCCAkygAwIBAgIQWKTN1sIrWSRW3eDifRwo3jANBgkqhkiG9w0BAQsFADAf
MR0wGwYDVQQDDBR2cG4yLmRta2suY2xvdWRucy5uejAeFw0yMjA0MDMwNzE5MTFa
Fw0yNDA3MDYwNzE5MTFaMA8xDTALBgNVBAMMBGRta2swggEiMA0GCSqGSIb3DQEB
AQUAA4IBDwAwggEKAoIBAQCdGyGy66zdQxtzGzo1hbNU3YJN0i5rZUjHglQJITHO
MZeHAp9gE6hTpU0VZ8uExxP9oeAvL9ZedewzraRTUD46qZ+P7KFsFIB5ZM36AqW/
s9HTHYGvs+Hz9xHjkt4Y9wYArO2+EJ6khWJyv1p1QZQxYQ+ZlrSO1tz1bxnecAZ+
7B5414ofSpM14SjH2Z9fNEF8SghSoAjc89pZrayfYOR/jfTBU6KipRUxmtafPetR
GQOxyJ7p52k8lvqfytjM14DdFjamtp7nhxWs9Meo/EB/4TLRAbEwhWAlH5o2K4gX
xSQeqLtvelZ1FZtcfQ2UENHO0nH3s8lJ84ZArdxtWV1lAgMBAAGjgaswgagwCQYD
VR0TBAIwADAdBgNVHQ4EFgQUdL3sFpWKrH9VVpP1MfbaCCdq+pcwWgYDVR0jBFMw
UYAUG841lA/aLtPrygm632NwGM3jgAGhI6QhMB8xHTAbBgNVBAMMFHZwbjIuZG1r
ay5jbG91ZG5zLm56ghRUf0QLbFCjHeBU7dL8LTc0zKE8DzATBgNVHSUEDDAKBggr
BgEFBQcDAjALBgNVHQ8EBAMCB4AwDQYJKoZIhvcNAQELBQADggEBAIAhctZumFIo
MXRJbk4xCCF9aV8MGz+yhyqM6evWanmP8NNXEqd3Bnm3G2HGabrQFv1PL79C2nTq
aTP8nmAQzuNf1u1/AVzMA2Tvop4H8SNZOkqVSD0zQ2YyaoSvZzZTjiFlSQn6iPiW
YNqafunnY+0MP56nuDfgkqtVe7ytLBz4BgIb3gfCafdt5Y+JlKMQ9v5JQD3yijUJ
YczjNNFSfQXHvKkjG4JurNKqfiT1axD65Bjb+kiny5391I/GkG27CHXYuqIvq5r7
zrozJnmMpTsW3c8u9UiYtg84USkTsFBsgE7lqDeUtDSTuF6ddW7jGUfdou1uhoxj
GUReiNbYnak=
-----END CERTIFICATE-----
