Certificate:
    Data:
        Version: 3 (0x2)
        Serial Number:
            38:39:40:37:73:e4:94:3d:3e:b2:cb:59:62:03:17:40
        Signature Algorithm: sha256WithRSAEncryption
        Issuer: CN=vpn2.dmkk.cloudns.nz
        Validity
            Not Before: Apr  3 07:21:28 2022 GMT
            Not After : Jul  6 07:21:28 2024 GMT
        Subject: CN=menaka
        Subject Public Key Info:
            Public Key Algorithm: rsaEncryption
                RSA Public-Key: (2048 bit)
                Modulus:
                    00:ea:de:d2:8b:8b:25:bd:9e:7e:12:ef:af:b1:ef:
                    54:25:08:5c:8b:ba:39:01:01:b5:b3:ff:9f:86:30:
                    79:84:f2:e9:8d:cf:7a:a9:be:65:e5:91:5c:61:ab:
                    0d:be:73:46:8e:96:de:db:eb:16:d1:88:a4:a8:7f:
                    c8:4c:aa:23:61:3e:a3:44:0e:20:ec:82:67:26:62:
                    70:0d:30:e2:a1:9d:50:39:29:95:bd:28:cf:2e:9e:
                    a6:fd:05:4d:84:57:0e:da:7a:fd:c5:b7:aa:0d:31:
                    d4:4f:66:05:a7:26:3b:b3:7d:08:b3:df:ec:7f:52:
                    19:35:52:af:09:dc:1b:27:6c:eb:ca:61:e2:25:7a:
                    33:d9:a0:80:67:c9:52:6e:d1:c8:74:8a:e3:e5:a5:
                    9b:54:9c:95:93:96:b1:38:a0:8f:e1:06:47:3f:d1:
                    e0:2a:26:a6:64:29:97:9e:bf:db:98:28:64:bd:0b:
                    42:0f:36:a5:25:95:fa:e1:d6:bb:20:6a:ac:30:df:
                    d5:8d:f4:84:20:59:d7:9b:4d:df:bd:cf:cc:87:14:
                    90:77:3d:04:bc:8c:92:aa:e1:04:fe:1b:3e:86:87:
                    42:ab:df:14:5d:8e:8d:1a:60:10:d3:49:9c:81:de:
                    4c:c3:97:a4:95:35:9c:7e:d1:ca:85:0c:86:a7:83:
                    db:cb
                Exponent: 65537 (0x10001)
        X509v3 extensions:
            X509v3 Basic Constraints: 
                CA:FALSE
            X509v3 Subject Key Identifier: 
                F9:84:EE:81:A6:13:C9:7C:6A:E9:27:95:D0:F2:A4:08:73:B4:D8:4D
            X509v3 Authority Key Identifier: 
                keyid:1B:CE:35:94:0F:DA:2E:D3:EB:CA:09:BA:DF:63:70:18:CD:E3:80:01
                DirName:/CN=vpn2.dmkk.cloudns.nz
                serial:54:7F:44:0B:6C:50:A3:1D:E0:54:ED:D2:FC:2D:37:34:CC:A1:3C:0F

            X509v3 Extended Key Usage: 
                TLS Web Client Authentication
            X509v3 Key Usage: 
                Digital Signature
    Signature Algorithm: sha256WithRSAEncryption
         14:a0:96:74:fc:a0:eb:ec:3f:dd:e5:c7:79:5a:f7:d6:5e:81:
         1c:b5:90:6b:30:aa:c6:01:2a:25:bb:c7:20:0e:d0:6b:c9:2a:
         85:ff:28:b0:38:b7:46:0d:38:13:fb:45:43:2e:9e:ba:67:e5:
         00:c8:ee:7e:77:78:ed:e7:c4:bd:76:22:eb:ec:fd:c5:a3:50:
         3a:d9:f9:fc:84:3f:43:3c:f2:58:53:db:c0:53:fa:ea:3f:3e:
         9b:7e:a6:3a:67:86:fb:1e:a4:c5:01:cb:89:d1:d4:16:33:52:
         56:54:64:8a:09:35:22:d3:d1:f1:db:bd:6e:05:c8:ec:2a:b9:
         58:44:e0:0c:e1:ab:5e:3c:92:80:c7:ed:6e:d1:c5:97:62:8b:
         6a:79:9f:e7:dd:f5:cf:4b:96:3d:d4:0a:18:4f:4d:22:5f:77:
         94:09:09:1f:f7:fe:25:03:dd:4f:15:30:fc:a9:4b:6c:b7:a4:
         06:ef:c2:6a:e7:1e:4a:ea:ee:f3:11:32:65:63:ef:b3:93:e4:
         7d:61:4d:5a:57:8a:0a:8b:42:91:83:df:cb:ce:63:cc:5f:e1:
         4d:dd:2e:b3:fd:94:d9:d3:c1:72:07:61:a2:2b:92:24:94:81:
         5c:cf:f8:0b:e2:da:9a:cf:c8:ea:5e:0a:10:ff:a6:98:26:bb:
         84:a7:a7:6e
-----BEGIN CERTIFICATE-----
MIIDZjCCAk6gAwIBAgIQODlAN3PklD0+sstZYgMXQDANBgkqhkiG9w0BAQsFADAf
MR0wGwYDVQQDDBR2cG4yLmRta2suY2xvdWRucy5uejAeFw0yMjA0MDMwNzIxMjha
Fw0yNDA3MDYwNzIxMjhaMBExDzANBgNVBAMMBm1lbmFrYTCCASIwDQYJKoZIhvcN
AQEBBQADggEPADCCAQoCggEBAOre0ouLJb2efhLvr7HvVCUIXIu6OQEBtbP/n4Yw
eYTy6Y3Peqm+ZeWRXGGrDb5zRo6W3tvrFtGIpKh/yEyqI2E+o0QOIOyCZyZicA0w
4qGdUDkplb0ozy6epv0FTYRXDtp6/cW3qg0x1E9mBacmO7N9CLPf7H9SGTVSrwnc
Gyds68ph4iV6M9mggGfJUm7RyHSK4+Wlm1SclZOWsTigj+EGRz/R4CompmQpl56/
25goZL0LQg82pSWV+uHWuyBqrDDf1Y30hCBZ15tN373PzIcUkHc9BLyMkqrhBP4b
PoaHQqvfFF2OjRpgENNJnIHeTMOXpJU1nH7RyoUMhqeD28sCAwEAAaOBqzCBqDAJ
BgNVHRMEAjAAMB0GA1UdDgQWBBT5hO6BphPJfGrpJ5XQ8qQIc7TYTTBaBgNVHSME
UzBRgBQbzjWUD9ou0+vKCbrfY3AYzeOAAaEjpCEwHzEdMBsGA1UEAwwUdnBuMi5k
bWtrLmNsb3VkbnMubnqCFFR/RAtsUKMd4FTt0vwtNzTMoTwPMBMGA1UdJQQMMAoG
CCsGAQUFBwMCMAsGA1UdDwQEAwIHgDANBgkqhkiG9w0BAQsFAAOCAQEAFKCWdPyg
6+w/3eXHeVr31l6BHLWQazCqxgEqJbvHIA7Qa8kqhf8osDi3Rg04E/tFQy6eumfl
AMjufnd47efEvXYi6+z9xaNQOtn5/IQ/QzzyWFPbwFP66j8+m36mOmeG+x6kxQHL
idHUFjNSVlRkigk1ItPR8du9bgXI7Cq5WETgDOGrXjySgMftbtHFl2KLanmf5931
z0uWPdQKGE9NIl93lAkJH/f+JQPdTxUw/KlLbLekBu/CauceSuru8xEyZWPvs5Pk
fWFNWleKCotCkYPfy85jzF/hTd0us/2U2dPBcgdhoiuSJJSBXM/4C+Lams/I6l4K
EP+mmCa7hKenbg==
-----END CERTIFICATE-----
