Certificate:
    Data:
        Version: 3 (0x2)
        Serial Number:
            9e:50:ff:15:83:6c:6e:dc:f3:a8:89:c8:b8:91:3b:64
        Signature Algorithm: sha256WithRSAEncryption
        Issuer: CN=vpn2.dmkk.cloudns.nz
        Validity
            Not Before: Apr  3 09:50:25 2022 GMT
            Not After : Jul  6 09:50:25 2024 GMT
        Subject: CN=vilochana
        Subject Public Key Info:
            Public Key Algorithm: rsaEncryption
                RSA Public-Key: (2048 bit)
                Modulus:
                    00:af:13:1b:62:1f:97:c1:bc:a2:46:16:fa:b9:ec:
                    ab:ee:d4:74:4d:69:32:f4:82:c8:d0:35:f7:c0:72:
                    5f:aa:83:dc:f3:a3:c5:19:b2:4f:4d:97:cd:0d:ef:
                    3f:e3:31:38:7b:c9:18:75:d6:dc:ec:34:8d:11:60:
                    83:31:8b:f8:88:87:24:84:38:83:e6:64:e3:d9:fe:
                    f3:73:77:c0:1e:f5:0b:4d:7b:9f:f1:e5:ab:6f:95:
                    6c:2e:a2:83:c5:80:d5:54:13:ef:19:36:61:fd:a3:
                    08:96:c5:bd:96:84:37:e4:89:c3:a6:9a:e5:a9:e0:
                    84:8c:24:7c:5f:90:6e:41:07:b1:4d:07:f9:75:a6:
                    e1:30:a6:7a:7d:4e:88:cd:6a:64:42:8c:dc:11:77:
                    3d:62:fa:ec:68:ee:35:22:01:93:2a:9c:ca:49:64:
                    53:ab:67:fe:62:d3:98:75:8a:56:bc:5f:1e:12:86:
                    f9:fa:79:15:9f:65:d9:e1:00:ff:0f:ca:09:7e:1c:
                    42:8e:99:e9:bb:27:ae:1f:48:d7:ad:9c:d4:8d:b1:
                    2a:97:c5:68:9d:ca:ca:62:b6:22:94:88:ff:48:08:
                    47:f6:fc:89:4c:62:ca:10:3f:23:75:b2:1f:5e:32:
                    b6:c7:01:ef:cb:20:54:4b:88:52:85:8a:ca:77:46:
                    c1:ab
                Exponent: 65537 (0x10001)
        X509v3 extensions:
            X509v3 Basic Constraints: 
                CA:FALSE
            X509v3 Subject Key Identifier: 
                A0:83:62:D1:4A:47:66:66:A6:84:10:D0:95:ED:B1:9C:C3:9B:48:E3
            X509v3 Authority Key Identifier: 
                keyid:1B:CE:35:94:0F:DA:2E:D3:EB:CA:09:BA:DF:63:70:18:CD:E3:80:01
                DirName:/CN=vpn2.dmkk.cloudns.nz
                serial:54:7F:44:0B:6C:50:A3:1D:E0:54:ED:D2:FC:2D:37:34:CC:A1:3C:0F

            X509v3 Extended Key Usage: 
                TLS Web Client Authentication
            X509v3 Key Usage: 
                Digital Signature
    Signature Algorithm: sha256WithRSAEncryption
         89:fc:64:7c:fd:1a:d8:56:58:b0:32:68:46:e4:20:74:7a:ab:
         56:31:ed:39:e1:55:a6:e5:8f:d7:f5:00:1e:ab:74:a5:2a:0f:
         db:3f:6a:8b:54:13:0b:c4:12:f4:70:05:e4:73:26:ec:e5:6d:
         49:83:8b:52:25:c3:50:6c:4e:1a:fc:27:5d:8c:f6:ce:8e:37:
         7a:2a:af:47:0c:6e:c8:34:de:0d:79:67:09:0e:11:6b:6a:7f:
         6e:cc:42:5b:b8:fc:c9:c7:8b:f9:e9:ae:00:88:6c:80:e8:45:
         11:4b:2d:55:bb:df:3e:3d:30:14:d8:d2:c4:39:4d:ba:0a:36:
         34:53:b7:04:42:32:60:b9:f8:35:c4:fe:0b:26:2e:a4:25:a9:
         f7:4e:d2:95:82:67:0d:63:bb:fd:77:af:8c:d1:c8:48:b6:f7:
         79:04:07:62:c3:7c:fe:91:d3:68:2f:64:d4:a8:d7:af:7d:b9:
         03:8e:d5:45:0b:2b:dc:ac:e9:a5:07:f5:da:42:7b:64:aa:6d:
         1c:6b:0e:cc:83:a4:c3:5f:73:36:ca:ac:03:54:8a:4e:b9:58:
         6f:ca:5a:b6:78:25:d4:9c:75:cf:be:b1:0c:23:69:20:a7:6a:
         75:55:44:97:93:28:df:aa:d9:47:54:aa:72:22:05:36:a6:cf:
         09:97:b2:64
-----BEGIN CERTIFICATE-----
MIIDajCCAlKgAwIBAgIRAJ5Q/xWDbG7c86iJyLiRO2QwDQYJKoZIhvcNAQELBQAw
HzEdMBsGA1UEAwwUdnBuMi5kbWtrLmNsb3VkbnMubnowHhcNMjIwNDAzMDk1MDI1
WhcNMjQwNzA2MDk1MDI1WjAUMRIwEAYDVQQDDAl2aWxvY2hhbmEwggEiMA0GCSqG
SIb3DQEBAQUAA4IBDwAwggEKAoIBAQCvExtiH5fBvKJGFvq57Kvu1HRNaTL0gsjQ
NffAcl+qg9zzo8UZsk9Nl80N7z/jMTh7yRh11tzsNI0RYIMxi/iIhySEOIPmZOPZ
/vNzd8Ae9QtNe5/x5atvlWwuooPFgNVUE+8ZNmH9owiWxb2WhDfkicOmmuWp4ISM
JHxfkG5BB7FNB/l1puEwpnp9TojNamRCjNwRdz1i+uxo7jUiAZMqnMpJZFOrZ/5i
05h1ila8Xx4Shvn6eRWfZdnhAP8Pygl+HEKOmem7J64fSNetnNSNsSqXxWidyspi
tiKUiP9ICEf2/IlMYsoQPyN1sh9eMrbHAe/LIFRLiFKFisp3RsGrAgMBAAGjgasw
gagwCQYDVR0TBAIwADAdBgNVHQ4EFgQUoINi0UpHZmamhBDQle2xnMObSOMwWgYD
VR0jBFMwUYAUG841lA/aLtPrygm632NwGM3jgAGhI6QhMB8xHTAbBgNVBAMMFHZw
bjIuZG1ray5jbG91ZG5zLm56ghRUf0QLbFCjHeBU7dL8LTc0zKE8DzATBgNVHSUE
DDAKBggrBgEFBQcDAjALBgNVHQ8EBAMCB4AwDQYJKoZIhvcNAQELBQADggEBAIn8
ZHz9GthWWLAyaEbkIHR6q1Yx7TnhVablj9f1AB6rdKUqD9s/aotUEwvEEvRwBeRz
JuzlbUmDi1Ilw1BsThr8J12M9s6ON3oqr0cMbsg03g15ZwkOEWtqf27MQlu4/MnH
i/nprgCIbIDoRRFLLVW73z49MBTY0sQ5TboKNjRTtwRCMmC5+DXE/gsmLqQlqfdO
0pWCZw1ju/13r4zRyEi293kEB2LDfP6R02gvZNSo1699uQOO1UULK9ys6aUH9dpC
e2SqbRxrDsyDpMNfczbKrANUik65WG/KWrZ4JdScdc++sQwjaSCnanVVRJeTKN+q
2UdUqnIiBTamzwmXsmQ=
-----END CERTIFICATE-----
