Certificate:
    Data:
        Version: 3 (0x2)
        Serial Number:
            1c:42:24:3f:7e:d2:ee:39:60:ea:58:54:8e:bc:23:7c
        Signature Algorithm: sha256WithRSAEncryption
        Issuer: CN=vpn2.dmkk.cloudns.nz
        Validity
            Not Before: Apr  3 07:15:41 2022 GMT
            Not After : Jul  6 07:15:41 2024 GMT
        Subject: CN=vpn2.dmkk.cloudns.nz
        Subject Public Key Info:
            Public Key Algorithm: rsaEncryption
                RSA Public-Key: (2048 bit)
                Modulus:
                    00:d2:66:2e:08:57:99:aa:86:91:eb:18:9b:63:c4:
                    d8:89:9f:9a:72:87:0d:b8:11:b9:a5:2c:cd:5d:48:
                    f1:ec:eb:99:9a:79:22:d4:99:80:24:c6:c4:eb:88:
                    80:e7:9c:9e:8a:68:be:e0:7d:76:c4:8e:7c:52:08:
                    fe:6f:c1:1c:dd:ba:a3:49:d9:bf:75:69:99:89:c4:
                    7f:1c:0f:ab:b6:89:98:dc:da:44:d1:3a:d1:a3:30:
                    f3:16:03:d3:f2:fd:16:c1:3b:8d:9e:c7:47:6c:eb:
                    90:09:ae:72:f7:63:bf:7c:40:86:ea:b6:07:74:ab:
                    6a:e0:6c:07:69:3b:0b:f3:86:6b:85:d5:59:85:73:
                    1c:b7:e9:29:e7:69:ff:da:3d:48:b5:76:5e:50:d8:
                    53:78:e1:78:dd:3f:8c:5b:25:86:26:74:d1:ff:ef:
                    96:aa:b0:46:97:ac:ed:28:ea:31:dd:0d:52:e9:32:
                    b5:0b:fc:49:51:cf:44:78:3f:b3:05:90:aa:d8:1c:
                    6f:4d:99:08:27:b4:45:29:ee:a6:80:52:f4:7d:fe:
                    5a:d9:e7:59:59:b1:69:0f:1c:95:de:bb:c8:93:2e:
                    03:2d:57:2c:b5:5a:5b:3d:f6:52:5b:f7:7b:29:96:
                    33:d9:8c:e1:bb:f5:5c:db:11:6d:ec:c7:a4:18:60:
                    9e:31
                Exponent: 65537 (0x10001)
        X509v3 extensions:
            X509v3 Basic Constraints: 
                CA:FALSE
            X509v3 Subject Key Identifier: 
                4C:CE:CC:0D:B8:80:79:C9:6A:E8:A4:7F:40:B6:2B:6F:4C:9A:44:C8
            X509v3 Authority Key Identifier: 
                keyid:1B:CE:35:94:0F:DA:2E:D3:EB:CA:09:BA:DF:63:70:18:CD:E3:80:01
                DirName:/CN=vpn2.dmkk.cloudns.nz
                serial:54:7F:44:0B:6C:50:A3:1D:E0:54:ED:D2:FC:2D:37:34:CC:A1:3C:0F

            X509v3 Extended Key Usage: 
                TLS Web Server Authentication
            X509v3 Key Usage: 
                Digital Signature, Key Encipherment
            X509v3 Subject Alternative Name: 
                DNS:vpn2.dmkk.cloudns.nz
    Signature Algorithm: sha256WithRSAEncryption
         41:a2:35:81:b2:f0:be:ab:a6:ad:05:3f:77:42:df:83:af:51:
         13:67:12:a1:be:d9:45:cc:57:46:2a:c6:75:7d:2e:1d:e3:6e:
         01:de:a3:d8:1a:21:51:a7:2a:e3:e4:de:e0:8e:37:72:ea:ef:
         b5:95:2e:dc:e7:ce:d8:09:9f:07:51:a2:4f:5d:14:dd:ac:bb:
         12:c4:6f:27:7d:bb:30:7a:b8:f9:86:60:46:30:c2:0d:29:e3:
         2e:52:bf:ad:e9:3c:63:0e:e4:a2:75:47:fa:cf:86:64:65:86:
         18:ba:62:c1:0f:0c:a3:1a:f5:b4:ff:a4:42:85:11:5a:5b:44:
         7d:d5:fa:45:fe:7d:02:e7:d5:ff:fa:50:71:69:1c:34:36:39:
         db:dc:77:a9:f8:67:e0:48:9c:7b:a0:64:5c:b4:5a:1d:59:0c:
         7d:7a:b3:81:81:a9:fc:b6:92:c0:67:31:53:56:a1:3f:19:ff:
         7d:b7:3d:c1:3f:72:f3:d4:e7:71:86:72:fd:fb:5d:35:a8:ea:
         37:24:f7:33:33:a3:48:4a:16:f4:db:c2:7b:23:37:a1:63:5d:
         70:95:84:cb:4b:06:0b:82:62:73:24:2e:9c:8d:ad:5f:6f:71:
         cc:25:75:9c:6a:9c:a9:14:be:9d:a7:18:f2:24:54:f0:b8:84:
         1d:aa:8c:3d
-----BEGIN CERTIFICATE-----
MIIDlTCCAn2gAwIBAgIQHEIkP37S7jlg6lhUjrwjfDANBgkqhkiG9w0BAQsFADAf
MR0wGwYDVQQDDBR2cG4yLmRta2suY2xvdWRucy5uejAeFw0yMjA0MDMwNzE1NDFa
Fw0yNDA3MDYwNzE1NDFaMB8xHTAbBgNVBAMMFHZwbjIuZG1ray5jbG91ZG5zLm56
MIIBIjANBgkqhkiG9w0BAQEFAAOCAQ8AMIIBCgKCAQEA0mYuCFeZqoaR6xibY8TY
iZ+acocNuBG5pSzNXUjx7OuZmnki1JmAJMbE64iA55yeimi+4H12xI58Ugj+b8Ec
3bqjSdm/dWmZicR/HA+rtomY3NpE0TrRozDzFgPT8v0WwTuNnsdHbOuQCa5y92O/
fECG6rYHdKtq4GwHaTsL84ZrhdVZhXMct+kp52n/2j1ItXZeUNhTeOF43T+MWyWG
JnTR/++WqrBGl6ztKOox3Q1S6TK1C/xJUc9EeD+zBZCq2BxvTZkIJ7RFKe6mgFL0
ff5a2edZWbFpDxyV3rvIky4DLVcstVpbPfZSW/d7KZYz2Yzhu/Vc2xFt7MekGGCe
MQIDAQABo4HMMIHJMAkGA1UdEwQCMAAwHQYDVR0OBBYEFEzOzA24gHnJauikf0C2
K29MmkTIMFoGA1UdIwRTMFGAFBvONZQP2i7T68oJut9jcBjN44ABoSOkITAfMR0w
GwYDVQQDDBR2cG4yLmRta2suY2xvdWRucy5ueoIUVH9EC2xQox3gVO3S/C03NMyh
PA8wEwYDVR0lBAwwCgYIKwYBBQUHAwEwCwYDVR0PBAQDAgWgMB8GA1UdEQQYMBaC
FHZwbjIuZG1ray5jbG91ZG5zLm56MA0GCSqGSIb3DQEBCwUAA4IBAQBBojWBsvC+
q6atBT93Qt+Dr1ETZxKhvtlFzFdGKsZ1fS4d424B3qPYGiFRpyrj5N7gjjdy6u+1
lS7c587YCZ8HUaJPXRTdrLsSxG8nfbswerj5hmBGMMINKeMuUr+t6TxjDuSidUf6
z4ZkZYYYumLBDwyjGvW0/6RChRFaW0R91fpF/n0C59X/+lBxaRw0Njnb3Hep+Gfg
SJx7oGRctFodWQx9erOBgan8tpLAZzFTVqE/Gf99tz3BP3Lz1OdxhnL9+101qOo3
JPczM6NIShb028J7IzehY11wlYTLSwYLgmJzJC6cja1fb3HMJXWcapypFL6dpxjy
JFTwuIQdqow9
-----END CERTIFICATE-----
