Certificate:
    Data:
        Version: 3 (0x2)
        Serial Number:
            35:9a:e0:bc:d2:d9:07:7e:cc:7d:4d:90:53:39:b2:6c
        Signature Algorithm: sha256WithRSAEncryption
        Issuer: CN=vpn2.dmkk.cloudns.nz
        Validity
            Not Before: Apr  3 07:21:18 2022 GMT
            Not After : Jul  6 07:21:18 2024 GMT
        Subject: CN=kavi
        Subject Public Key Info:
            Public Key Algorithm: rsaEncryption
                RSA Public-Key: (2048 bit)
                Modulus:
                    00:b1:ba:20:64:08:6c:80:cb:80:d2:2e:20:ae:29:
                    e2:fb:b1:16:53:3e:b6:ca:c8:1d:f4:07:c4:04:08:
                    fb:34:79:ab:e2:03:a4:3e:50:84:c5:08:ef:68:f9:
                    f2:80:85:6c:51:f1:9b:40:b2:32:f0:dd:2d:2b:61:
                    3f:87:35:12:13:72:02:fd:8e:68:92:d3:3e:ad:da:
                    60:2c:ca:9b:39:f1:c2:94:c1:c4:07:87:48:d7:1f:
                    c1:43:46:4f:da:bd:c5:bc:db:1c:8b:9c:ec:b1:a3:
                    05:c8:c1:71:59:e2:bd:96:7b:4f:d9:1e:b7:30:da:
                    49:f6:43:a8:01:0f:d6:0c:71:72:30:1e:e3:79:ed:
                    6f:f8:d0:78:80:a3:b8:4e:e9:b1:5f:80:de:36:89:
                    6d:fa:5e:67:9b:cb:06:a2:8f:91:ac:3b:dc:0e:8d:
                    70:7d:7d:a3:df:e1:ac:fa:d9:db:fb:9c:73:f0:17:
                    f1:17:70:1f:86:35:34:d5:78:69:2d:52:fc:25:a7:
                    91:f6:c7:68:38:61:d5:a2:fb:c2:2f:b9:b5:c8:ff:
                    6a:fe:2e:dd:7c:db:df:3d:aa:ab:10:e8:db:94:79:
                    ee:5e:b5:78:98:d7:fa:2b:06:74:b4:1e:d6:47:ab:
                    40:ef:3c:1f:33:e7:07:b4:a6:0f:f1:38:8c:23:cd:
                    3b:95
                Exponent: 65537 (0x10001)
        X509v3 extensions:
            X509v3 Basic Constraints: 
                CA:FALSE
            X509v3 Subject Key Identifier: 
                56:FC:CC:C0:F8:11:64:2E:7E:35:45:E1:CF:81:AB:1F:4C:4E:0F:95
            X509v3 Authority Key Identifier: 
                keyid:1B:CE:35:94:0F:DA:2E:D3:EB:CA:09:BA:DF:63:70:18:CD:E3:80:01
                DirName:/CN=vpn2.dmkk.cloudns.nz
                serial:54:7F:44:0B:6C:50:A3:1D:E0:54:ED:D2:FC:2D:37:34:CC:A1:3C:0F

            X509v3 Extended Key Usage: 
                TLS Web Client Authentication
            X509v3 Key Usage: 
                Digital Signature
    Signature Algorithm: sha256WithRSAEncryption
         42:1c:49:cd:0c:68:03:dc:b9:fe:5e:7a:45:ac:ca:fb:8b:b6:
         df:2b:ea:2b:6a:f0:06:19:d9:72:3e:30:29:3a:b5:9f:d4:23:
         0e:65:cc:cc:1a:41:26:55:09:bf:ed:75:ff:2b:ad:9d:1b:c8:
         a9:a4:26:03:ba:d6:91:10:39:60:10:37:98:62:ef:f8:95:24:
         26:34:d5:e1:6c:e0:24:71:10:55:85:99:7a:a5:10:b4:69:aa:
         ad:ea:0f:c6:fb:8e:bc:b9:ea:e3:df:16:86:00:80:14:c4:47:
         d6:39:f8:fc:69:a9:c2:4b:49:d0:7f:05:fe:ca:da:2b:ed:9e:
         a0:5c:6f:ad:55:10:41:35:6d:ba:5e:60:78:93:0e:4e:9b:34:
         f5:d9:30:b8:39:92:5e:ef:00:7a:88:f2:f7:27:9a:47:8d:38:
         b6:41:ad:08:0f:b4:5e:03:b1:38:20:2f:5d:da:43:28:82:2d:
         ec:cd:fa:b4:c2:5d:e5:5a:69:c8:25:95:32:19:99:1b:23:56:
         1c:57:2e:3e:6e:a7:5f:32:e7:45:0a:ef:50:d3:35:6f:ca:4b:
         d2:d0:aa:f7:79:2d:2c:2d:09:e4:3c:14:80:30:4c:2f:7c:29:
         83:2b:32:1e:01:5d:15:67:f2:6f:84:cf:e9:5c:3c:68:cf:cb:
         7d:33:34:62
-----BEGIN CERTIFICATE-----
MIIDZDCCAkygAwIBAgIQNZrgvNLZB37MfU2QUzmybDANBgkqhkiG9w0BAQsFADAf
MR0wGwYDVQQDDBR2cG4yLmRta2suY2xvdWRucy5uejAeFw0yMjA0MDMwNzIxMTha
Fw0yNDA3MDYwNzIxMThaMA8xDTALBgNVBAMMBGthdmkwggEiMA0GCSqGSIb3DQEB
AQUAA4IBDwAwggEKAoIBAQCxuiBkCGyAy4DSLiCuKeL7sRZTPrbKyB30B8QECPs0
eaviA6Q+UITFCO9o+fKAhWxR8ZtAsjLw3S0rYT+HNRITcgL9jmiS0z6t2mAsyps5
8cKUwcQHh0jXH8FDRk/avcW82xyLnOyxowXIwXFZ4r2We0/ZHrcw2kn2Q6gBD9YM
cXIwHuN57W/40HiAo7hO6bFfgN42iW36Xmebywaij5GsO9wOjXB9faPf4az62dv7
nHPwF/EXcB+GNTTVeGktUvwlp5H2x2g4YdWi+8IvubXI/2r+Lt182989qqsQ6NuU
ee5etXiY1/orBnS0HtZHq0DvPB8z5we0pg/xOIwjzTuVAgMBAAGjgaswgagwCQYD
VR0TBAIwADAdBgNVHQ4EFgQUVvzMwPgRZC5+NUXhz4GrH0xOD5UwWgYDVR0jBFMw
UYAUG841lA/aLtPrygm632NwGM3jgAGhI6QhMB8xHTAbBgNVBAMMFHZwbjIuZG1r
ay5jbG91ZG5zLm56ghRUf0QLbFCjHeBU7dL8LTc0zKE8DzATBgNVHSUEDDAKBggr
BgEFBQcDAjALBgNVHQ8EBAMCB4AwDQYJKoZIhvcNAQELBQADggEBAEIcSc0MaAPc
uf5eekWsyvuLtt8r6itq8AYZ2XI+MCk6tZ/UIw5lzMwaQSZVCb/tdf8rrZ0byKmk
JgO61pEQOWAQN5hi7/iVJCY01eFs4CRxEFWFmXqlELRpqq3qD8b7jry56uPfFoYA
gBTER9Y5+PxpqcJLSdB/Bf7K2ivtnqBcb61VEEE1bbpeYHiTDk6bNPXZMLg5kl7v
AHqI8vcnmkeNOLZBrQgPtF4DsTggL13aQyiCLezN+rTCXeVaacgllTIZmRsjVhxX
Lj5up18y50UK71DTNW/KS9LQqvd5LSwtCeQ8FIAwTC98KYMrMh4BXRVn8m+Ez+lc
PGjPy30zNGI=
-----END CERTIFICATE-----
